target datalayout = "e-m:e-p270:32:32-p271:32:32-p272:64:64-i64:64-i128:128-f80:128-n8:16:32:64-S128"
target triple = "x86_64-pc-linux-gnu"

%struct._generic_N_Vector = type { ptr, ptr, ptr }
%struct._N_VectorContent_Serial = type { i64, i32, ptr }
%struct._generic_SUNLinearSolver = type { ptr, ptr, ptr }

@stderr = external global ptr, align 8
@.str.35 = private unnamed_addr constant [29 x i8] c"ARKodeGetNonlinearSystemData\00", align 1
@.str.36 = private unnamed_addr constant [55 x i8] c"\0ASUNDIALS_ERROR: %s() failed - returned NULL pointer\0A\0A\00", align 1
@.str.37 = private unnamed_addr constant [46 x i8] c"\0ASUNDIALS_ERROR: %s() failed with flag = %d\0A\0A\00", align 1
@.str.38 = private unnamed_addr constant [53 x i8] c"\0AMEMORY_ERROR: %s() failed - returned NULL pointer\0A\0A\00", align 1

; Function Attrs: nounwind uwtable
define internal i32 @check_retval(ptr noundef %0, ptr noundef %1, i32 noundef %2) #0 {
  %4 = alloca i32, align 4
  %5 = alloca ptr, align 8
  %6 = alloca ptr, align 8
  %7 = alloca i32, align 4
  %8 = alloca ptr, align 8
  %9 = alloca i32, align 4
  store ptr %0, ptr %5, align 8, !tbaa !15
  store ptr %1, ptr %6, align 8, !tbaa !28
  store i32 %2, ptr %7, align 4, !tbaa !16
  call void @llvm.lifetime.start.p0(i64 8, ptr %8) #5
  %10 = load i32, ptr %7, align 4, !tbaa !16
  %11 = icmp eq i32 %10, 0
  br i1 %11, label %12, label %19

12:                                               ; preds = %3
  %13 = load ptr, ptr %5, align 8, !tbaa !15
  %14 = icmp eq ptr %13, null
  br i1 %14, label %15, label %19

15:                                               ; preds = %12
  %16 = load ptr, ptr @stderr, align 8, !tbaa !26
  %17 = load ptr, ptr %6, align 8, !tbaa !28
  %18 = call i32 (ptr, ptr, ...) @fprintf(ptr noundef %16, ptr noundef @.str.36, ptr noundef %17) #5
  store i32 1, ptr %4, align 4
  store i32 1, ptr %9, align 4
  br label %47

19:                                               ; preds = %12, %3
  %20 = load i32, ptr %7, align 4, !tbaa !16
  %21 = icmp eq i32 %20, 1
  br i1 %21, label %22, label %34

22:                                               ; preds = %19
  %23 = load ptr, ptr %5, align 8, !tbaa !15
  store ptr %23, ptr %8, align 8, !tbaa !30
  %24 = load ptr, ptr %8, align 8, !tbaa !30
  %25 = load i32, ptr %24, align 4, !tbaa !16
  %26 = icmp slt i32 %25, 0
  br i1 %26, label %27, label %33

27:                                               ; preds = %22
  %28 = load ptr, ptr @stderr, align 8, !tbaa !26
  %29 = load ptr, ptr %6, align 8, !tbaa !28
  %30 = load ptr, ptr %8, align 8, !tbaa !30
  %31 = load i32, ptr %30, align 4, !tbaa !16
  %32 = call i32 (ptr, ptr, ...) @fprintf(ptr noundef %28, ptr noundef @.str.37, ptr noundef %29, i32 noundef %31) #5
  store i32 1, ptr %4, align 4
  store i32 1, ptr %9, align 4
  br label %47

33:                                               ; preds = %22
  br label %45

34:                                               ; preds = %19
  %35 = load i32, ptr %7, align 4, !tbaa !16
  %36 = icmp eq i32 %35, 2
  br i1 %36, label %37, label %44

37:                                               ; preds = %34
  %38 = load ptr, ptr %5, align 8, !tbaa !15
  %39 = icmp eq ptr %38, null
  br i1 %39, label %40, label %44

40:                                               ; preds = %37
  %41 = load ptr, ptr @stderr, align 8, !tbaa !26
  %42 = load ptr, ptr %6, align 8, !tbaa !28
  %43 = call i32 (ptr, ptr, ...) @fprintf(ptr noundef %41, ptr noundef @.str.38, ptr noundef %42) #5
  store i32 1, ptr %4, align 4
  store i32 1, ptr %9, align 4
  br label %47

44:                                               ; preds = %37, %34
  br label %45

45:                                               ; preds = %44, %33
  br label %46

46:                                               ; preds = %45
  store i32 0, ptr %4, align 4
  store i32 1, ptr %9, align 4
  br label %47

47:                                               ; preds = %46, %40, %27, %15
  call void @llvm.lifetime.end.p0(i64 8, ptr %8) #5
  %48 = load i32, ptr %4, align 4
  ret i32 %48
}

; Function Attrs: nounwind uwtable
define internal i32 @MatrixEmbeddedLSSolve(ptr noundef %0, ptr noundef %1, ptr noundef %2, ptr noundef %3, double noundef %4) #0 {
  %6 = alloca i32, align 4
  %7 = alloca ptr, align 8
  %8 = alloca ptr, align 8
  %9 = alloca ptr, align 8
  %10 = alloca ptr, align 8
  %11 = alloca double, align 8
  %12 = alloca i32, align 4
  %13 = alloca ptr, align 8
  %14 = alloca ptr, align 8
  %15 = alloca ptr, align 8
  %16 = alloca ptr, align 8
  %17 = alloca double, align 8
  %18 = alloca double, align 8
  %19 = alloca ptr, align 8
  %20 = alloca ptr, align 8
  %21 = alloca double, align 8
  %22 = alloca i32, align 4
  store ptr %0, ptr %7, align 8, !tbaa !13
  store ptr %1, ptr %8, align 8, !tbaa !41
  store ptr %2, ptr %9, align 8, !tbaa !10
  store ptr %3, ptr %10, align 8, !tbaa !10
  store double %4, ptr %11, align 8, !tbaa !4
  call void @llvm.lifetime.start.p0(i64 4, ptr %12) #5
  call void @llvm.lifetime.start.p0(i64 8, ptr %13) #5
  call void @llvm.lifetime.start.p0(i64 8, ptr %14) #5
  call void @llvm.lifetime.start.p0(i64 8, ptr %15) #5
  call void @llvm.lifetime.start.p0(i64 8, ptr %16) #5
  call void @llvm.lifetime.start.p0(i64 8, ptr %17) #5
  call void @llvm.lifetime.start.p0(i64 8, ptr %18) #5
  call void @llvm.lifetime.start.p0(i64 8, ptr %19) #5
  call void @llvm.lifetime.start.p0(i64 8, ptr %20) #5
  call void @llvm.lifetime.start.p0(i64 8, ptr %21) #5
  %23 = load ptr, ptr %7, align 8, !tbaa !13
  %24 = getelementptr inbounds nuw %struct._generic_SUNLinearSolver, ptr %23, i32 0, i32 0
  %25 = load ptr, ptr %24, align 8, !tbaa !40
  %26 = call i32 @ARKodeGetNonlinearSystemData(ptr noundef %25, ptr noundef %17, ptr noundef %14, ptr noundef %13, ptr noundef %15, ptr noundef %18, ptr noundef %16, ptr noundef %19)
  store i32 %26, ptr %12, align 4, !tbaa !16
  %27 = call i32 @check_retval(ptr noundef %12, ptr noundef @.str.35, i32 noundef 1)
  %28 = icmp ne i32 %27, 0
  br i1 %28, label %29, label %30

29:                                               ; preds = %5
  store i32 -1, ptr %6, align 4
  store i32 1, ptr %22, align 4
  br label %53

30:                                               ; preds = %5
  %31 = load ptr, ptr %19, align 8, !tbaa !15
  store ptr %31, ptr %20, align 8, !tbaa !32
  %32 = load ptr, ptr %20, align 8, !tbaa !32
  %33 = getelementptr inbounds double, ptr %32, i64 0
  %34 = load double, ptr %33, align 8, !tbaa !4
  store double %34, ptr %21, align 8, !tbaa !4
  %35 = load ptr, ptr %10, align 8, !tbaa !10
  %36 = getelementptr inbounds nuw %struct._generic_N_Vector, ptr %35, i32 0, i32 0
  %37 = load ptr, ptr %36, align 8, !tbaa !20
  %38 = getelementptr inbounds nuw %struct._N_VectorContent_Serial, ptr %37, i32 0, i32 2
  %39 = load ptr, ptr %38, align 8, !tbaa !23
  %40 = getelementptr inbounds double, ptr %39, i64 0
  %41 = load double, ptr %40, align 8, !tbaa !4
  %42 = load double, ptr %18, align 8, !tbaa !4
  %43 = load double, ptr %21, align 8, !tbaa !4
  %44 = fneg double %42
  %45 = call double @llvm.fmuladd.f64(double %44, double %43, double 1.000000e+00)
  %46 = fdiv double %41, %45
  %47 = load ptr, ptr %9, align 8, !tbaa !10
  %48 = getelementptr inbounds nuw %struct._generic_N_Vector, ptr %47, i32 0, i32 0
  %49 = load ptr, ptr %48, align 8, !tbaa !20
  %50 = getelementptr inbounds nuw %struct._N_VectorContent_Serial, ptr %49, i32 0, i32 2
  %51 = load ptr, ptr %50, align 8, !tbaa !23
  %52 = getelementptr inbounds double, ptr %51, i64 0
  store double %46, ptr %52, align 8, !tbaa !4
  store i32 0, ptr %6, align 4
  store i32 1, ptr %22, align 4
  br label %53

53:                                               ; preds = %30, %29
  call void @llvm.lifetime.end.p0(i64 8, ptr %21) #5
  call void @llvm.lifetime.end.p0(i64 8, ptr %20) #5
  call void @llvm.lifetime.end.p0(i64 8, ptr %19) #5
  call void @llvm.lifetime.end.p0(i64 8, ptr %18) #5
  call void @llvm.lifetime.end.p0(i64 8, ptr %17) #5
  call void @llvm.lifetime.end.p0(i64 8, ptr %16) #5
  call void @llvm.lifetime.end.p0(i64 8, ptr %15) #5
  call void @llvm.lifetime.end.p0(i64 8, ptr %14) #5
  call void @llvm.lifetime.end.p0(i64 8, ptr %13) #5
  call void @llvm.lifetime.end.p0(i64 4, ptr %12) #5
  %54 = load i32, ptr %6, align 4
  ret i32 %54
}