; Function Attrs: nounwind uwtable
define internal range(i32 -1, 1) i32 @MatrixEmbeddedLSSolve(ptr noundef readonly captures(none) %0, ptr readnone captures(none) %1, ptr noundef readonly captures(none) %2, ptr noundef readonly captures(none) %3, double %4) #0 {
  %6 = alloca ptr, align 8
  %7 = alloca ptr, align 8
  %8 = alloca ptr, align 8
  %9 = alloca ptr, align 8
  %10 = alloca double, align 8
  %11 = alloca double, align 8
  %12 = alloca ptr, align 8
  call void @llvm.lifetime.start.p0(i64 8, ptr nonnull %6) #10
  call void @llvm.lifetime.start.p0(i64 8, ptr nonnull %7) #10
  call void @llvm.lifetime.start.p0(i64 8, ptr nonnull %8) #10
  call void @llvm.lifetime.start.p0(i64 8, ptr nonnull %9) #10
  call void @llvm.lifetime.start.p0(i64 8, ptr nonnull %10) #10
  call void @llvm.lifetime.start.p0(i64 8, ptr nonnull %11) #10
  call void @llvm.lifetime.start.p0(i64 8, ptr nonnull %12) #10
  %13 = load ptr, ptr %0, align 8, !tbaa !21
  %14 = call i32 @ARKodeGetNonlinearSystemData(ptr noundef %13, ptr noundef nonnull %10, ptr noundef nonnull %7, ptr noundef nonnull %6, ptr noundef nonnull %8, ptr noundef nonnull %11, ptr noundef nonnull %9, ptr noundef nonnull %12) #10
  %15 = icmp slt i32 %14, 0
  br i1 %15, label %check_retval.exit, label %18

check_retval.exit:                                ; preds = %5
  %16 = load ptr, ptr @stderr, align 8, !tbaa !8
  %17 = call i32 (ptr, ptr, ...) @fprintf(ptr noundef %16, ptr noundef nonnull @.str.37, ptr noundef nonnull @.str.35, i32 noundef %14) #11
  br label %32

18:                                               ; preds = %5
  %19 = load ptr, ptr %12, align 8, !tbaa !13
  %20 = load double, ptr %19, align 8, !tbaa !4
  %21 = load ptr, ptr %3, align 8, !tbaa !22
  %22 = getelementptr inbounds nuw i8, ptr %21, i64 16
  %23 = load ptr, ptr %22, align 8, !tbaa !25
  %24 = load double, ptr %23, align 8, !tbaa !4
  %25 = load double, ptr %11, align 8, !tbaa !4
  %26 = fneg double %25
  %27 = call double @llvm.fmuladd.f64(double %26, double %20, double 1.000000e+00)
  %28 = fdiv double %24, %27
  %29 = load ptr, ptr %2, align 8, !tbaa !22
  %30 = getelementptr inbounds nuw i8, ptr %29, i64 16
  %31 = load ptr, ptr %30, align 8, !tbaa !25
  store double %28, ptr %31, align 8, !tbaa !4
  br label %32

32:                                               ; preds = %check_retval.exit, %18
  %.0 = phi i32 [ 0, %18 ], [ -1, %check_retval.exit ]
  call void @llvm.lifetime.end.p0(i64 8, ptr nonnull %12) #10
  call void @llvm.lifetime.end.p0(i64 8, ptr nonnull %11) #10
  call void @llvm.lifetime.end.p0(i64 8, ptr nonnull %10) #10
  call void @llvm.lifetime.end.p0(i64 8, ptr nonnull %9) #10
  call void @llvm.lifetime.end.p0(i64 8, ptr nonnull %8) #10
  call void @llvm.lifetime.end.p0(i64 8, ptr nonnull %7) #10
  call void @llvm.lifetime.end.p0(i64 8, ptr nonnull %6) #10
  ret i32 %.0
}